; Function Attrs: mustprogress uwtable
define void @_ZN3g2o15SparseOptimizer12setAlgorithmEPNS_21OptimizationAlgorithmE(ptr noundef nonnull align 8 dereferenceable(409) %0, ptr noundef %1) local_unnamed_addr #3 align 2 {
  %3 = getelementptr inbounds nuw i8, ptr %0, i64 376
  %4 = load ptr, ptr %3, align 8
  %.not = icmp eq ptr %4, null
  br i1 %.not, label %_ZN3g2o7releaseINS_21OptimizationAlgorithmEEEvPT_.exit, label %5

5:                                                ; preds = %2
  tail call void @_ZN3g2o21OptimizationAlgorithm12setOptimizerEPNS_15SparseOptimizerE(ptr noundef nonnull align 8 dereferenceable(64) %4, ptr noundef null)
  %6 = load ptr, ptr %3, align 8
  %7 = icmp eq ptr %6, null
  br i1 %7, label %_ZN3g2o7releaseINS_21OptimizationAlgorithmEEEvPT_.exit, label %8

8:                                                ; preds = %5
  %9 = load ptr, ptr %6, align 8
  %10 = getelementptr inbounds i8, ptr %9, i64 8
  %11 = load ptr, ptr %10, align 8
  tail call void %11(ptr noundef nonnull align 8 dereferenceable(64) %6) #25
  br label %_ZN3g2o7releaseINS_21OptimizationAlgorithmEEEvPT_.exit

_ZN3g2o7releaseINS_21OptimizationAlgorithmEEEvPT_.exit: ; preds = %8, %5, %2
  store ptr %1, ptr %3, align 8
  %.not3 = icmp eq ptr %1, null
  br i1 %.not3, label %13, label %12

12:                                               ; preds = %_ZN3g2o7releaseINS_21OptimizationAlgorithmEEEvPT_.exit
  tail call void @_ZN3g2o21OptimizationAlgorithm12setOptimizerEPNS_15SparseOptimizerE(ptr noundef nonnull align 8 dereferenceable(64) %1, ptr noundef nonnull %0)
  br label %13

13:                                               ; preds = %12, %_ZN3g2o7releaseINS_21OptimizationAlgorithmEEEvPT_.exit
  ret void
}